target datalayout = "e-m:e-p270:32:32-p271:32:32-p272:64:64-i64:64-i128:128-f80:128-n8:16:32:64-S128"
target triple = "x86_64-pc-linux-gnu"

%struct.expert_field = type { i32, i32 }

@ei_q933_invalid_length = internal global %struct.expert_field zeroinitializer, align 4
@.str.598 = private unnamed_addr constant [40 x i8] c"%s goes past end of information element\00", align 1
@.str.599 = private unnamed_addr constant [23 x i8] c"%s isn't 3 octets long\00", align 1

; Function Attrs: null_pointer_is_valid sspstrong uwtable
define internal i32 @dissect_q933_uint16_value(ptr noundef %0, ptr noundef %1, i32 noundef %2, i32 noundef %3, ptr noundef %4, i32 noundef %5) #0 {
  %7 = alloca i32, align 4
  %8 = alloca ptr, align 8
  %9 = alloca ptr, align 8
  %10 = alloca i32, align 4
  %11 = alloca i32, align 4
  %12 = alloca ptr, align 8
  %13 = alloca i32, align 4
  %14 = alloca i8, align 1
  %15 = alloca i16, align 2
  %16 = alloca i32, align 4
  %17 = alloca i32, align 4
  store ptr %0, ptr %8, align 8
  store ptr %1, ptr %9, align 8
  store i32 %2, ptr %10, align 4
  store i32 %3, ptr %11, align 4
  store ptr %4, ptr %12, align 8
  store i32 %5, ptr %13, align 4
  call void @llvm.lifetime.start.p0(i64 1, ptr %14) #3
  call void @llvm.lifetime.start.p0(i64 2, ptr %15) #3
  call void @llvm.lifetime.start.p0(i64 4, ptr %16) #3
  store i32 0, ptr %16, align 4
  %18 = load ptr, ptr %8, align 8
  %19 = load i32, ptr %10, align 4
  %20 = call zeroext i8 @tvb_get_uint8(ptr noundef %18, i32 noundef %19)
  store i8 %20, ptr %14, align 1
  %21 = load i8, ptr %14, align 1
  %22 = zext i8 %21 to i32
  %23 = and i32 %22, 128
  %24 = icmp ne i32 %23, 0
  br i1 %24, label %25, label %26

25:                                               ; preds = %6
  br label %107

26:                                               ; preds = %6
  %27 = load i8, ptr %14, align 1
  %28 = zext i8 %27 to i32
  %29 = and i32 %28, 3
  %30 = shl i32 %29, 14
  %31 = trunc i32 %30 to i16
  store i16 %31, ptr %15, align 2
  %32 = load i32, ptr %10, align 4
  %33 = add i32 %32, 1
  store i32 %33, ptr %10, align 4
  %34 = load i32, ptr %11, align 4
  %35 = sub i32 %34, 1
  store i32 %35, ptr %11, align 4
  %36 = load i32, ptr %16, align 4
  %37 = add i32 %36, 1
  store i32 %37, ptr %16, align 4
  %38 = load i32, ptr %11, align 4
  %39 = icmp eq i32 %38, 0
  br i1 %39, label %40, label %41

40:                                               ; preds = %26
  br label %98

41:                                               ; preds = %26
  %42 = load ptr, ptr %8, align 8
  %43 = load i32, ptr %10, align 4
  %44 = call zeroext i8 @tvb_get_uint8(ptr noundef %42, i32 noundef %43)
  store i8 %44, ptr %14, align 1
  %45 = load i8, ptr %14, align 1
  %46 = zext i8 %45 to i32
  %47 = and i32 %46, 128
  %48 = icmp ne i32 %47, 0
  br i1 %48, label %49, label %50

49:                                               ; preds = %41
  br label %107

50:                                               ; preds = %41
  %51 = load i8, ptr %14, align 1
  %52 = zext i8 %51 to i32
  %53 = and i32 %52, 127
  %54 = shl i32 %53, 7
  %55 = load i16, ptr %15, align 2
  %56 = zext i16 %55 to i32
  %57 = or i32 %56, %54
  %58 = trunc i32 %57 to i16
  store i16 %58, ptr %15, align 2
  %59 = load i32, ptr %10, align 4
  %60 = add i32 %59, 1
  store i32 %60, ptr %10, align 4
  %61 = load i32, ptr %11, align 4
  %62 = sub i32 %61, 1
  store i32 %62, ptr %11, align 4
  %63 = load i32, ptr %16, align 4
  %64 = add i32 %63, 1
  store i32 %64, ptr %16, align 4
  %65 = load i32, ptr %11, align 4
  %66 = icmp eq i32 %65, 0
  br i1 %66, label %67, label %68

67:                                               ; preds = %50
  br label %98

68:                                               ; preds = %50
  %69 = load ptr, ptr %8, align 8
  %70 = load i32, ptr %10, align 4
  %71 = call zeroext i8 @tvb_get_uint8(ptr noundef %69, i32 noundef %70)
  store i8 %71, ptr %14, align 1
  %72 = load i8, ptr %14, align 1
  %73 = zext i8 %72 to i32
  %74 = and i32 %73, 128
  %75 = icmp ne i32 %74, 0
  br i1 %75, label %77, label %76

76:                                               ; preds = %68
  br label %107

77:                                               ; preds = %68
  %78 = load i8, ptr %14, align 1
  %79 = zext i8 %78 to i32
  %80 = and i32 %79, 127
  %81 = load i16, ptr %15, align 2
  %82 = zext i16 %81 to i32
  %83 = or i32 %82, %80
  %84 = trunc i32 %83 to i16
  store i16 %84, ptr %15, align 2
  %85 = load i32, ptr %10, align 4
  %86 = add i32 %85, 1
  store i32 %86, ptr %10, align 4
  %87 = load i32, ptr %16, align 4
  %88 = add i32 %87, 1
  store i32 %88, ptr %16, align 4
  %89 = load ptr, ptr %12, align 8
  %90 = load i32, ptr %13, align 4
  %91 = load ptr, ptr %8, align 8
  %92 = load i32, ptr %10, align 4
  %93 = load i32, ptr %16, align 4
  %94 = load i16, ptr %15, align 2
  %95 = zext i16 %94 to i32
  %96 = call ptr @proto_tree_add_uint(ptr noundef %89, i32 noundef %90, ptr noundef %91, i32 noundef %92, i32 noundef %93, i32 noundef %95)
  %97 = load i32, ptr %16, align 4
  store i32 %97, ptr %7, align 4
  store i32 1, ptr %17, align 4
  br label %116

98:                                               ; preds = %67, %40
  %99 = load ptr, ptr %12, align 8
  %100 = load ptr, ptr %9, align 8
  %101 = load ptr, ptr %8, align 8
  %102 = load i32, ptr %10, align 4
  %103 = load i32, ptr %11, align 4
  %104 = load i32, ptr %13, align 4
  %105 = call ptr @proto_registrar_get_name(i32 noundef %104)
  %106 = call ptr (ptr, ptr, ptr, ptr, i32, i32, ptr, ...) @proto_tree_add_expert_format(ptr noundef %99, ptr noundef %100, ptr noundef @ei_q933_invalid_length, ptr noundef %101, i32 noundef %102, i32 noundef %103, ptr noundef @.str.598, ptr noundef %105)
  store i32 -1, ptr %7, align 4
  store i32 1, ptr %17, align 4
  br label %116

107:                                              ; preds = %76, %49, %25
  %108 = load ptr, ptr %12, align 8
  %109 = load ptr, ptr %9, align 8
  %110 = load ptr, ptr %8, align 8
  %111 = load i32, ptr %10, align 4
  %112 = load i32, ptr %11, align 4
  %113 = load i32, ptr %13, align 4
  %114 = call ptr @proto_registrar_get_name(i32 noundef %113)
  %115 = call ptr (ptr, ptr, ptr, ptr, i32, i32, ptr, ...) @proto_tree_add_expert_format(ptr noundef %108, ptr noundef %109, ptr noundef @ei_q933_invalid_length, ptr noundef %110, i32 noundef %111, i32 noundef %112, ptr noundef @.str.599, ptr noundef %114)
  store i32 -1, ptr %7, align 4
  store i32 1, ptr %17, align 4
  br label %116

116:                                              ; preds = %107, %98, %77
  call void @llvm.lifetime.end.p0(i64 4, ptr %16) #3
  call void @llvm.lifetime.end.p0(i64 2, ptr %15) #3
  call void @llvm.lifetime.end.p0(i64 1, ptr %14) #3
  %117 = load i32, ptr %7, align 4
  ret i32 %117
}