; Function Attrs: null_pointer_is_valid sspstrong uwtable
define internal fastcc range(i32 -1, 4) i32 @dissect_q933_uint16_value(ptr noundef %0, ptr noundef %1, i32 noundef %2, i32 noundef range(i32 2147483647, 256) %3, ptr noundef %4, i32 noundef %5) unnamed_addr #0 {
  %7 = tail call zeroext i8 @tvb_get_uint8(ptr noundef %0, i32 noundef %2)
  %.not = icmp sgt i8 %7, -1
  br i1 %.not, label %8, label %33

8:                                                ; preds = %6
  %9 = zext nneg i8 %7 to i32
  %10 = shl nuw nsw i32 %9, 14
  %11 = add i32 %2, 1
  %12 = add i32 %3, -1
  %13 = icmp eq i32 %12, 0
  br i1 %13, label %30, label %14

14:                                               ; preds = %8
  %15 = tail call zeroext i8 @tvb_get_uint8(ptr noundef %0, i32 noundef %11)
  %.not50 = icmp sgt i8 %15, -1
  br i1 %.not50, label %16, label %33

16:                                               ; preds = %14
  %17 = zext nneg i8 %15 to i32
  %18 = shl nuw nsw i32 %17, 7
  %19 = add i32 %2, 2
  %20 = add i32 %3, -2
  %21 = icmp eq i32 %20, 0
  br i1 %21, label %30, label %22

22:                                               ; preds = %16
  %23 = tail call zeroext i8 @tvb_get_uint8(ptr noundef %0, i32 noundef %19)
  %.not51 = icmp sgt i8 %23, -1
  br i1 %.not51, label %33, label %24

24:                                               ; preds = %22
  %25 = and i8 %23, 127
  %26 = zext nneg i8 %25 to i32
  %27 = add i32 %2, 3
  %.masked52 = and i32 %10, 49152
  %.masked = or disjoint i32 %18, %.masked52
  %28 = or disjoint i32 %.masked, %26
  %29 = tail call ptr @proto_tree_add_uint(ptr noundef %4, i32 noundef %5, ptr noundef %0, i32 noundef %27, i32 noundef 3, i32 noundef %28)
  br label %36

30:                                               ; preds = %16, %8
  %.1 = phi i32 [ %11, %8 ], [ %19, %16 ]
  %31 = tail call ptr @proto_registrar_get_name(i32 noundef %5)
  %32 = tail call ptr (ptr, ptr, ptr, ptr, i32, i32, ptr, ...) @proto_tree_add_expert_format(ptr noundef %4, ptr noundef %1, ptr noundef nonnull @ei_q933_invalid_length, ptr noundef %0, i32 noundef %.1, i32 noundef 0, ptr noundef nonnull @.str.598, ptr noundef %31)
  br label %36

33:                                               ; preds = %22, %14, %6
  %.044 = phi i32 [ %3, %6 ], [ %12, %14 ], [ %20, %22 ]
  %.043 = phi i32 [ %2, %6 ], [ %11, %14 ], [ %19, %22 ]
  %34 = tail call ptr @proto_registrar_get_name(i32 noundef %5)
  %35 = tail call ptr (ptr, ptr, ptr, ptr, i32, i32, ptr, ...) @proto_tree_add_expert_format(ptr noundef %4, ptr noundef %1, ptr noundef nonnull @ei_q933_invalid_length, ptr noundef %0, i32 noundef %.043, i32 noundef %.044, ptr noundef nonnull @.str.599, ptr noundef %34)
  br label %36

36:                                               ; preds = %33, %30, %24
  %.0 = phi i32 [ -1, %33 ], [ -1, %30 ], [ 3, %24 ]
  ret i32 %.0
}